target datalayout = "e-m:e-p270:32:32-p271:32:32-p272:64:64-i64:64-i128:128-f80:128-n8:16:32:64-S128"
target triple = "x86_64-pc-linux-gnu"

%struct.lv_style_t = type { ptr, i32, i8 }
%union.lv_style_value_t = type { ptr }

; Function Attrs: inlinehint nounwind uwtable
define internal zeroext i1 @lv_style_is_const(ptr noundef %0) #1 {
  %2 = alloca i1, align 1
  %3 = alloca ptr, align 8
  store ptr %0, ptr %3, align 8, !tbaa !3
  %4 = load ptr, ptr %3, align 8, !tbaa !3
  %5 = getelementptr inbounds nuw %struct.lv_style_t, ptr %4, i32 0, i32 2
  %6 = load i8, ptr %5, align 4, !tbaa !9
  %7 = zext i8 %6 to i32
  %8 = icmp eq i32 %7, 255
  br i1 %8, label %9, label %10

9:                                                ; preds = %1
  store i1 true, ptr %2, align 1
  br label %11

10:                                               ; preds = %1
  store i1 false, ptr %2, align 1
  br label %11

11:                                               ; preds = %10, %9
  %12 = load i1, ptr %2, align 1
  ret i1 %12
}

; Function Attrs: nounwind uwtable
define zeroext i1 @lv_style_remove_prop(ptr noundef %0, i8 noundef zeroext %1) #0 {
  %3 = alloca i1, align 1
  %4 = alloca ptr, align 8
  %5 = alloca i8, align 1
  %6 = alloca ptr, align 8
  %7 = alloca ptr, align 8
  %8 = alloca i32, align 4
  %9 = alloca ptr, align 8
  %10 = alloca i64, align 8
  %11 = alloca ptr, align 8
  %12 = alloca i32, align 4
  %13 = alloca ptr, align 8
  %14 = alloca ptr, align 8
  %15 = alloca i32, align 4
  store ptr %0, ptr %4, align 8, !tbaa !3
  store i8 %1, ptr %5, align 1, !tbaa !13
  br label %16

16:                                               ; preds = %2
  br label %17

17:                                               ; preds = %16
  %18 = load ptr, ptr %4, align 8, !tbaa !3
  %19 = call zeroext i1 @lv_style_is_const(ptr noundef %18)
  br i1 %19, label %20, label %23

20:                                               ; preds = %17
  br label %21

21:                                               ; preds = %20
  br label %22

22:                                               ; preds = %21
  store i1 false, ptr %3, align 1
  br label %140

23:                                               ; preds = %17
  %24 = load ptr, ptr %4, align 8, !tbaa !3
  %25 = getelementptr inbounds nuw %struct.lv_style_t, ptr %24, i32 0, i32 2
  %26 = load i8, ptr %25, align 4, !tbaa !9
  %27 = zext i8 %26 to i32
  %28 = icmp eq i32 %27, 0
  br i1 %28, label %29, label %30

29:                                               ; preds = %23
  store i1 false, ptr %3, align 1
  br label %140

30:                                               ; preds = %23
  call void @llvm.lifetime.start.p0(i64 8, ptr %6) #6
  %31 = load ptr, ptr %4, align 8, !tbaa !3
  %32 = getelementptr inbounds nuw %struct.lv_style_t, ptr %31, i32 0, i32 0
  %33 = load ptr, ptr %32, align 8, !tbaa !12
  %34 = load ptr, ptr %4, align 8, !tbaa !3
  %35 = getelementptr inbounds nuw %struct.lv_style_t, ptr %34, i32 0, i32 2
  %36 = load i8, ptr %35, align 4, !tbaa !9
  %37 = zext i8 %36 to i64
  %38 = mul i64 %37, 8
  %39 = getelementptr inbounds nuw i8, ptr %33, i64 %38
  store ptr %39, ptr %6, align 8, !tbaa !3
  call void @llvm.lifetime.start.p0(i64 8, ptr %7) #6
  %40 = load ptr, ptr %6, align 8, !tbaa !3
  store ptr %40, ptr %7, align 8, !tbaa !3
  call void @llvm.lifetime.start.p0(i64 4, ptr %8) #6
  store i32 0, ptr %8, align 4, !tbaa !26
  br label %41

41:                                               ; preds = %135, %30
  %42 = load i32, ptr %8, align 4, !tbaa !26
  %43 = load ptr, ptr %4, align 8, !tbaa !3
  %44 = getelementptr inbounds nuw %struct.lv_style_t, ptr %43, i32 0, i32 2
  %45 = load i8, ptr %44, align 4, !tbaa !9
  %46 = zext i8 %45 to i32
  %47 = icmp ult i32 %42, %46
  br i1 %47, label %48, label %138

48:                                               ; preds = %41
  %49 = load ptr, ptr %7, align 8, !tbaa !3
  %50 = load i32, ptr %8, align 4, !tbaa !26
  %51 = zext i32 %50 to i64
  %52 = getelementptr inbounds nuw i8, ptr %49, i64 %51
  %53 = load i8, ptr %52, align 1, !tbaa !13
  %54 = zext i8 %53 to i32
  %55 = load i8, ptr %5, align 1, !tbaa !13
  %56 = zext i8 %55 to i32
  %57 = icmp eq i32 %54, %56
  br i1 %57, label %58, label %134

58:                                               ; preds = %48
  call void @llvm.lifetime.start.p0(i64 8, ptr %9) #6
  %59 = load ptr, ptr %4, align 8, !tbaa !3
  %60 = getelementptr inbounds nuw %struct.lv_style_t, ptr %59, i32 0, i32 0
  %61 = load ptr, ptr %60, align 8, !tbaa !12
  store ptr %61, ptr %9, align 8, !tbaa !3
  call void @llvm.lifetime.start.p0(i64 8, ptr %10) #6
  %62 = load ptr, ptr %4, align 8, !tbaa !3
  %63 = getelementptr inbounds nuw %struct.lv_style_t, ptr %62, i32 0, i32 2
  %64 = load i8, ptr %63, align 4, !tbaa !9
  %65 = zext i8 %64 to i32
  %66 = sub nsw i32 %65, 1
  %67 = sext i32 %66 to i64
  %68 = mul i64 %67, 9
  store i64 %68, ptr %10, align 8, !tbaa !7
  call void @llvm.lifetime.start.p0(i64 8, ptr %11) #6
  %69 = load i64, ptr %10, align 8, !tbaa !7
  %70 = call ptr @lv_malloc(i64 noundef %69)
  store ptr %70, ptr %11, align 8, !tbaa !3
  %71 = load ptr, ptr %11, align 8, !tbaa !3
  %72 = icmp eq ptr %71, null
  br i1 %72, label %73, label %74

73:                                               ; preds = %58
  store i1 false, ptr %3, align 1
  store i32 1, ptr %12, align 4
  br label %133

74:                                               ; preds = %58
  %75 = load ptr, ptr %11, align 8, !tbaa !3
  %76 = load ptr, ptr %4, align 8, !tbaa !3
  %77 = getelementptr inbounds nuw %struct.lv_style_t, ptr %76, i32 0, i32 0
  store ptr %75, ptr %77, align 8, !tbaa !12
  %78 = load ptr, ptr %4, align 8, !tbaa !3
  %79 = getelementptr inbounds nuw %struct.lv_style_t, ptr %78, i32 0, i32 2
  %80 = load i8, ptr %79, align 4, !tbaa !9
  %81 = add i8 %80, -1
  store i8 %81, ptr %79, align 4, !tbaa !9
  %82 = load ptr, ptr %11, align 8, !tbaa !3
  %83 = load ptr, ptr %4, align 8, !tbaa !3
  %84 = getelementptr inbounds nuw %struct.lv_style_t, ptr %83, i32 0, i32 2
  %85 = load i8, ptr %84, align 4, !tbaa !9
  %86 = zext i8 %85 to i64
  %87 = mul i64 %86, 8
  %88 = getelementptr inbounds nuw i8, ptr %82, i64 %87
  store ptr %88, ptr %6, align 8, !tbaa !3
  call void @llvm.lifetime.start.p0(i64 8, ptr %13) #6
  %89 = load ptr, ptr %6, align 8, !tbaa !3
  store ptr %89, ptr %13, align 8, !tbaa !3
  call void @llvm.lifetime.start.p0(i64 8, ptr %14) #6
  %90 = load ptr, ptr %11, align 8, !tbaa !3
  store ptr %90, ptr %14, align 8, !tbaa !3
  call void @llvm.lifetime.start.p0(i64 4, ptr %15) #6
  store i32 0, ptr %15, align 4, !tbaa !26
  store i32 0, ptr %8, align 4, !tbaa !26
  br label %91

91:                                               ; preds = %128, %74
  %92 = load i32, ptr %15, align 4, !tbaa !26
  %93 = load ptr, ptr %4, align 8, !tbaa !3
  %94 = getelementptr inbounds nuw %struct.lv_style_t, ptr %93, i32 0, i32 2
  %95 = load i8, ptr %94, align 4, !tbaa !9
  %96 = zext i8 %95 to i32
  %97 = icmp ule i32 %92, %96
  br i1 %97, label %98, label %131

98:                                               ; preds = %91
  %99 = load ptr, ptr %7, align 8, !tbaa !3
  %100 = load i32, ptr %15, align 4, !tbaa !26
  %101 = zext i32 %100 to i64
  %102 = getelementptr inbounds nuw i8, ptr %99, i64 %101
  %103 = load i8, ptr %102, align 1, !tbaa !13
  %104 = zext i8 %103 to i32
  %105 = load i8, ptr %5, align 1, !tbaa !13
  %106 = zext i8 %105 to i32
  %107 = icmp ne i32 %104, %106
  br i1 %107, label %108, label %127

108:                                              ; preds = %98
  %109 = load ptr, ptr %14, align 8, !tbaa !3
  %110 = load i32, ptr %8, align 4, !tbaa !26
  %111 = zext i32 %110 to i64
  %112 = getelementptr inbounds nuw %union.lv_style_value_t, ptr %109, i64 %111
  %113 = load ptr, ptr %9, align 8, !tbaa !3
  %114 = load i32, ptr %15, align 4, !tbaa !26
  %115 = zext i32 %114 to i64
  %116 = getelementptr inbounds nuw %union.lv_style_value_t, ptr %113, i64 %115
  call void @llvm.memcpy.p0.p0.i64(ptr align 8 %112, ptr align 8 %116, i64 8, i1 false), !tbaa.struct !27
  %117 = load ptr, ptr %7, align 8, !tbaa !3
  %118 = load i32, ptr %15, align 4, !tbaa !26
  %119 = zext i32 %118 to i64
  %120 = getelementptr inbounds nuw i8, ptr %117, i64 %119
  %121 = load i8, ptr %120, align 1, !tbaa !13
  %122 = load ptr, ptr %13, align 8, !tbaa !3
  %123 = load i32, ptr %8, align 4, !tbaa !26
  %124 = add i32 %123, 1
  store i32 %124, ptr %8, align 4, !tbaa !26
  %125 = zext i32 %123 to i64
  %126 = getelementptr inbounds nuw i8, ptr %122, i64 %125
  store i8 %121, ptr %126, align 1, !tbaa !13
  br label %127

127:                                              ; preds = %108, %98
  br label %128

128:                                              ; preds = %127
  %129 = load i32, ptr %15, align 4, !tbaa !26
  %130 = add i32 %129, 1
  store i32 %130, ptr %15, align 4, !tbaa !26
  br label %91, !llvm.loop !28

131:                                              ; preds = %91
  %132 = load ptr, ptr %9, align 8, !tbaa !3
  call void @lv_free(ptr noundef %132)
  store i1 true, ptr %3, align 1
  store i32 1, ptr %12, align 4
  call void @llvm.lifetime.end.p0(i64 4, ptr %15) #6
  call void @llvm.lifetime.end.p0(i64 8, ptr %14) #6
  call void @llvm.lifetime.end.p0(i64 8, ptr %13) #6
  br label %133

133:                                              ; preds = %131, %73
  call void @llvm.lifetime.end.p0(i64 8, ptr %11) #6
  call void @llvm.lifetime.end.p0(i64 8, ptr %10) #6
  call void @llvm.lifetime.end.p0(i64 8, ptr %9) #6
  br label %139

134:                                              ; preds = %48
  br label %135

135:                                              ; preds = %134
  %136 = load i32, ptr %8, align 4, !tbaa !26
  %137 = add i32 %136, 1
  store i32 %137, ptr %8, align 4, !tbaa !26
  br label %41, !llvm.loop !30

138:                                              ; preds = %41
  store i1 false, ptr %3, align 1
  store i32 1, ptr %12, align 4
  br label %139

139:                                              ; preds = %138, %133
  call void @llvm.lifetime.end.p0(i64 4, ptr %8) #6
  call void @llvm.lifetime.end.p0(i64 8, ptr %7) #6
  call void @llvm.lifetime.end.p0(i64 8, ptr %6) #6
  br label %140

140:                                              ; preds = %139, %29, %22
  %141 = load i1, ptr %3, align 1
  ret i1 %141
}