; Function Attrs: nounwind uwtable
define noundef zeroext i1 @lv_style_remove_prop(ptr nocapture noundef %0, i8 noundef zeroext %1) local_unnamed_addr #0 {
  %3 = getelementptr i8, ptr %0, i64 12
  %.val = load i8, ptr %3, align 4, !tbaa !3
  switch i8 %.val, label %.lr.ph.preheader [
    i8 -1, label %.loopexit
    i8 0, label %.loopexit
  ]

.lr.ph.preheader:                                 ; preds = %2
  %4 = load ptr, ptr %0, align 8, !tbaa !9
  %5 = zext i8 %.val to i64
  %6 = shl nuw nsw i64 %5, 3
  %7 = getelementptr inbounds nuw i8, ptr %4, i64 %6
  %8 = zext i8 %.val to i64
  %wide.trip.count = zext i8 %.val to i64
  br label %.lr.ph

9:                                                ; preds = %.lr.ph
  %indvars.iv.next = add nuw nsw i64 %indvars.iv, 1
  %exitcond.not = icmp eq i64 %indvars.iv.next, %wide.trip.count
  br i1 %exitcond.not, label %.loopexit, label %.lr.ph, !llvm.loop !24

.lr.ph:                                           ; preds = %.lr.ph.preheader, %9
  %indvars.iv = phi i64 [ 0, %.lr.ph.preheader ], [ %indvars.iv.next, %9 ]
  %10 = getelementptr inbounds nuw i8, ptr %7, i64 %indvars.iv
  %11 = load i8, ptr %10, align 1, !tbaa !23
  %12 = icmp eq i8 %11, %1
  br i1 %12, label %13, label %9

13:                                               ; preds = %.lr.ph
  %14 = mul nuw nsw i64 %8, 9
  %narrow = add nuw nsw i64 %14, 4294967287
  %15 = and i64 %narrow, 4294967295
  %16 = tail call ptr @lv_malloc(i64 noundef %15) #7
  %.not45 = icmp eq ptr %16, null
  br i1 %.not45, label %.loopexit, label %17

17:                                               ; preds = %13
  store ptr %16, ptr %0, align 8, !tbaa !9
  %18 = load i8, ptr %3, align 4, !tbaa !3
  %19 = add i8 %18, -1
  store i8 %19, ptr %3, align 4, !tbaa !3
  %20 = zext i8 %19 to i64
  %21 = shl nuw nsw i64 %20, 3
  %22 = getelementptr inbounds nuw i8, ptr %16, i64 %21
  br label %23

23:                                               ; preds = %17, %35
  %24 = phi i8 [ %19, %17 ], [ %36, %35 ]
  %indvars.iv52 = phi i64 [ 0, %17 ], [ %indvars.iv.next53, %35 ]
  %.13948 = phi i32 [ 0, %17 ], [ %.240, %35 ]
  %25 = getelementptr inbounds nuw i8, ptr %7, i64 %indvars.iv52
  %26 = load i8, ptr %25, align 1, !tbaa !23
  %.not44 = icmp eq i8 %26, %1
  br i1 %.not44, label %35, label %27

27:                                               ; preds = %23
  %28 = zext i32 %.13948 to i64
  %29 = getelementptr inbounds nuw %union.lv_style_value_t, ptr %16, i64 %28
  %30 = getelementptr inbounds nuw %union.lv_style_value_t, ptr %4, i64 %indvars.iv52
  %31 = load i64, ptr %30, align 8, !tbaa !23
  store i64 %31, ptr %29, align 8, !tbaa !23
  %32 = load i8, ptr %25, align 1, !tbaa !23
  %33 = add i32 %.13948, 1
  %34 = getelementptr inbounds nuw i8, ptr %22, i64 %28
  store i8 %32, ptr %34, align 1, !tbaa !23
  %.pre = load i8, ptr %3, align 4, !tbaa !3
  br label %35

35:                                               ; preds = %23, %27
  %36 = phi i8 [ %.pre, %27 ], [ %24, %23 ]
  %.240 = phi i32 [ %33, %27 ], [ %.13948, %23 ]
  %indvars.iv.next53 = add nuw nsw i64 %indvars.iv52, 1
  %37 = zext i8 %36 to i64
  %.not.not = icmp samesign ult i64 %indvars.iv52, %37
  br i1 %.not.not, label %23, label %38, !llvm.loop !26

38:                                               ; preds = %35
  tail call void @lv_free(ptr noundef nonnull %4) #7
  br label %.loopexit

.loopexit:                                        ; preds = %9, %2, %2, %13, %38
  %.037 = phi i1 [ false, %2 ], [ false, %13 ], [ true, %38 ], [ false, %2 ], [ false, %9 ]
  ret i1 %.037
}